ccopy_reg
_reconstructor
p0
(csave_restore_layout.save_restore_layout
LayoutData
p1
c__builtin__
tuple
p2
(V(kicad_pcb (version 20171130) (host pcbnew 5.1.5+dfsg1-2build2)\u000a\u000a  (general\u000a    (thickness 1.6)\u000a    (drawings 0)\u000a    (tracks 0)\u000a    (zones 0)\u000a    (modules 32)\u000a    (nets 30)\u000a  )\u000a\u000a  (page A4)\u000a  (layers\u000a    (0 F.Cu signal)\u000a    (31 B.Cu signal)\u000a    (32 B.Adhes user)\u000a    (33 F.Adhes user)\u000a    (34 B.Paste user)\u000a    (35 F.Paste user)\u000a    (36 B.SilkS user)\u000a    (37 F.SilkS user)\u000a    (38 B.Mask user)\u000a    (39 F.Mask user)\u000a    (40 Dwgs.User user)\u000a    (41 Cmts.User user)\u000a    (42 Eco1.User user)\u000a    (43 Eco2.User user)\u000a    (44 Edge.Cuts user)\u000a    (45 Margin user)\u000a    (46 B.CrtYd user)\u000a    (47 F.CrtYd user)\u000a    (48 B.Fab user)\u000a    (49 F.Fab user)\u000a  )\u000a\u000a  (setup\u000a    (last_trace_width 0.25)\u000a    (user_trace_width 1)\u000a    (trace_clearance 0.2)\u000a    (zone_clearance 0.508)\u000a    (zone_45_only no)\u000a    (trace_min 0.2)\u000a    (via_size 0.8)\u000a    (via_drill 0.4)\u000a    (via_min_size 0.4)\u000a    (via_min_drill 0.3)\u000a    (uvia_size 0.3)\u000a    (uvia_drill 0.1)\u000a    (uvias_allowed no)\u000a    (uvia_min_size 0.2)\u000a    (uvia_min_drill 0.1)\u000a    (edge_width 0.1)\u000a    (segment_width 0.2)\u000a    (pcb_text_width 0.3)\u000a    (pcb_text_size 1.5 1.5)\u000a    (mod_edge_width 0.15)\u000a    (mod_text_size 1 1)\u000a    (mod_text_width 0.15)\u000a    (pad_size 1.8 3)\u000a    (pad_drill 0.9)\u000a    (pad_to_mask_clearance 0)\u000a    (aux_axis_origin 0 0)\u000a    (visible_elements FFFFFF7F)\u000a    (pcbplotparams\u000a      (layerselection 0x3ffff_ffffffff)\u000a      (usegerberextensions false)\u000a      (usegerberattributes false)\u000a      (usegerberadvancedattributes false)\u000a      (creategerberjobfile false)\u000a      (excludeedgelayer true)\u000a      (linewidth 0.100000)\u000a      (plotframeref false)\u000a      (viasonmask false)\u000a      (mode 1)\u000a      (useauxorigin false)\u000a      (hpglpennumber 1)\u000a      (hpglpenspeed 20)\u000a      (hpglpendiameter 15.000000)\u000a      (psnegative false)\u000a      (psa4output false)\u000a      (plotreference true)\u000a      (plotvalue true)\u000a      (plotinvisibletext false)\u000a      (padsonsilk false)\u000a      (subtractmaskfromsilk false)\u000a      (outputformat 1)\u000a      (mirror false)\u000a      (drillshape 0)\u000a      (scaleselection 1)\u000a      (outputdirectory "manufacturing/"))\u000a  )\u000a\u000a  (net 0 "")\u000a  (net 1 GND)\u000a  (net 2 +5V)\u000a  (net 3 /Sheet63D6B888/b)\u000a  (net 4 /Sheet63D6B888/a)\u000a  (net 5 /Sheet63D6B888/enable_write)\u000a  (net 6 /Sheet63D6B888/cin)\u000a  (net 7 /Sheet63C79D9A/out)\u000a  (net 8 /sheet63D7C1B8/cin)\u000a  (net 9 /Sheet63D6B888/Sheet63C11DD6/in)\u000a  (net 10 "Net-(Q106-Pad1)")\u000a  (net 11 /Sheet63D6B888/Sheet63C11D93/b)\u000a  (net 12 /Sheet63D6B888/sheet63C11D15/sheet63BD3BA9/a)\u000a  (net 13 "Net-(Q109-Pad1)")\u000a  (net 14 /Sheet63D6B888/sheet63C11D15/sheet63BD3BA9/b)\u000a  (net 15 /Sheet63D6B888/sheet63C11D15/sheet63BD65B1/a)\u000a  (net 16 "Net-(Q111-Pad1)")\u000a  (net 17 /Sheet63D6B888/sheet63C11D15/sheet63BD65B1/sheet63BD432B/a)\u000a  (net 18 /Sheet63D6B888/sheet63C11D15/sheet63BD65B1/sheet63BD4329/a)\u000a  (net 19 "Net-(Q113-Pad1)")\u000a  (net 20 /Sheet63D6B888/sheet63C11D15/sheet63BD65B1/sheet63BD432B/b)\u000a  (net 21 "Net-(Q115-Pad1)")\u000a  (net 22 "Net-(Q117-Pad1)")\u000a  (net 23 "Net-(Q119-Pad1)")\u000a  (net 24 /Sheet63D6B888/sheet63C11D15/Sheet63BD3FAE/sheet63BD432B/a)\u000a  (net 25 /Sheet63D6B888/sheet63C11D15/Sheet63BD3FAE/sheet63BD4329/a)\u000a  (net 26 "Net-(Q121-Pad1)")\u000a  (net 27 /Sheet63D6B888/sheet63C11D15/Sheet63BD3FAE/sheet63BD432B/b)\u000a  (net 28 "Net-(Q123-Pad1)")\u000a  (net 29 "Net-(Q125-Pad1)")\u000a\u000a  (net_class Default "This is the default net class."\u000a    (clearance 0.2)\u000a    (trace_width 0.25)\u000a    (via_dia 0.8)\u000a    (via_drill 0.4)\u000a    (uvia_dia 0.3)\u000a    (uvia_drill 0.1)\u000a    (add_net +5V)\u000a    (add_net /Sheet63C79D9A/out)\u000a    (add_net /Sheet63D6B888/Sheet63C11D93/b)\u000a    (add_net /Sheet63D6B888/Sheet63C11DD6/in)\u000a    (add_net /Sheet63D6B888/a)\u000a    (add_net /Sheet63D6B888/b)\u000a    (add_net /Sheet63D6B888/cin)\u000a    (add_net /Sheet63D6B888/enable_write)\u000a    (add_net /Sheet63D6B888/sheet63C11D15/Sheet63BD3FAE/sheet63BD4329/a)\u000a    (add_net /Sheet63D6B888/sheet63C11D15/Sheet63BD3FAE/sheet63BD432B/a)\u000a    (add_net /Sheet63D6B888/sheet63C11D15/Sheet63BD3FAE/sheet63BD432B/b)\u000a    (add_net /Sheet63D6B888/sheet63C11D15/sheet63BD3BA9/a)\u000a    (add_net /Sheet63D6B888/sheet63C11D15/sheet63BD3BA9/b)\u000a    (add_net /Sheet63D6B888/sheet63C11D15/sheet63BD65B1/a)\u000a    (add_net /Sheet63D6B888/sheet63C11D15/sheet63BD65B1/sheet63BD4329/a)\u000a    (add_net /Sheet63D6B888/sheet63C11D15/sheet63BD65B1/sheet63BD432B/a)\u000a    (add_net /Sheet63D6B888/sheet63C11D15/sheet63BD65B1/sheet63BD432B/b)\u000a    (add_net /sheet63D7C1B8/cin)\u000a    (add_net GND)\u000a    (add_net "Net-(Q106-Pad1)")\u000a    (add_net "Net-(Q109-Pad1)")\u000a    (add_net "Net-(Q111-Pad1)")\u000a    (add_net "Net-(Q113-Pad1)")\u000a    (add_net "Net-(Q115-Pad1)")\u000a    (add_net "Net-(Q117-Pad1)")\u000a    (add_net "Net-(Q119-Pad1)")\u000a    (add_net "Net-(Q121-Pad1)")\u000a    (add_net "Net-(Q123-Pad1)")\u000a    (add_net "Net-(Q125-Pad1)")\u000a  )\u000a\u000a  (module processor2:resistor_tight (layer F.Cu) (tedit 63B98E0F) (tstamp 63BCCE6A)\u000a    (at 60.198 80.01 180)\u000a    (path /63D6B889/63C11D1C/63BD3FAF/63BD433F/63B95328)\u000a    (fp_text reference R66 (at 0 0) (layer F.SilkS)\u000a      (effects (font (size 1 1) (thickness 0.15)))\u000a    )\u000a    (fp_text value R (at 0 -2.54) (layer F.Fab)\u000a      (effects (font (size 1 1) (thickness 0.15)))\u000a    )\u000a    (fp_line (start -2 1) (end -2 -1) (layer F.SilkS) (width 0.12))\u000a    (fp_line (start 2 1) (end -2 1) (layer F.SilkS) (width 0.12))\u000a    (fp_line (start 2 -1) (end 2 1) (layer F.SilkS) (width 0.12))\u000a    (fp_line (start -2 -1) (end 2 -1) (layer F.SilkS) (width 0.12))\u000a    (pad 2 thru_hole oval (at -3.81 0 270) (size 1.8 3) (drill 0.9) (layers *.Cu *.Mask)\u000a      (net 15 /Sheet63D6B888/sheet63C11D15/sheet63BD65B1/a))\u000a    (pad 1 thru_hole oval (at 3.81 0 270) (size 1.8 3) (drill 0.9) (layers *.Cu *.Mask)\u000a      (net 2 +5V))\u000a  )\u000a\u000a  (module processor2:resistor_tight (layer F.Cu) (tedit 63B98E0F) (tstamp 63BCCE60)\u000a    (at 60.198 72.644 180)\u000a    (path /63D6B889/63C11D1C/63BD3FAF/63BD433A/63B95328)\u000a    (fp_text reference R65 (at 0 0) (layer F.SilkS)\u000a      (effects (font (size 1 1) (thickness 0.15)))\u000a    )\u000a    (fp_text value R (at 0 -2.54) (layer F.Fab)\u000a      (effects (font (size 1 1) (thickness 0.15)))\u000a    )\u000a    (fp_line (start -2 1) (end -2 -1) (layer F.SilkS) (width 0.12))\u000a    (fp_line (start 2 1) (end -2 1) (layer F.SilkS) (width 0.12))\u000a    (fp_line (start 2 -1) (end 2 1) (layer F.SilkS) (width 0.12))\u000a    (fp_line (start -2 -1) (end 2 -1) (layer F.SilkS) (width 0.12))\u000a    (pad 2 thru_hole oval (at -3.81 0 270) (size 1.8 3) (drill 0.9) (layers *.Cu *.Mask)\u000a      (net 27 /Sheet63D6B888/sheet63C11D15/Sheet63BD3FAE/sheet63BD432B/b))\u000a    (pad 1 thru_hole oval (at 3.81 0 270) (size 1.8 3) (drill 0.9) (layers *.Cu *.Mask)\u000a      (net 2 +5V))\u000a  )\u000a\u000a  (module processor2:resistor_tight (layer F.Cu) (tedit 63B98E0F) (tstamp 63BCCE56)\u000a    (at 60.198 65.024 180)\u000a    (path /63D6B889/63C11D1C/63BD3FAF/63BD4335/63B95328)\u000a    (fp_text reference R64 (at 0 0) (layer F.SilkS)\u000a      (effects (font (size 1 1) (thickness 0.15)))\u000a    )\u000a    (fp_text value R (at 0 -2.54) (layer F.Fab)\u000a      (effects (font (size 1 1) (thickness 0.15)))\u000a    )\u000a    (fp_line (start -2 1) (end -2 -1) (layer F.SilkS) (width 0.12))\u000a    (fp_line (start 2 1) (end -2 1) (layer F.SilkS) (width 0.12))\u000a    (fp_line (start 2 -1) (end 2 1) (layer F.SilkS) (width 0.12))\u000a    (fp_line (start -2 -1) (end 2 -1) (layer F.SilkS) (width 0.12))\u000a    (pad 2 thru_hole oval (at -3.81 0 270) (size 1.8 3) (drill 0.9) (layers *.Cu *.Mask)\u000a      (net 24 /Sheet63D6B888/sheet63C11D15/Sheet63BD3FAE/sheet63BD432B/a))\u000a    (pad 1 thru_hole oval (at 3.81 0 270) (size 1.8 3) (drill 0.9) (layers *.Cu *.Mask)\u000a      (net 2 +5V))\u000a  )\u000a\u000a  (module processor2:resistor_tight (layer F.Cu) (tedit 63B98E0F) (tstamp 63BCCE4C)\u000a    (at 60.198 57.404 180)\u000a    (path /63D6B889/63C11D1C/63BD3FAF/63BD4330/63B95328)\u000a    (fp_text reference R63 (at 0 0) (layer F.SilkS)\u000a      (effects (font (size 1 1) (thickness 0.15)))\u000a    )\u000a    (fp_text value R (at 0 -2.54) (layer F.Fab)\u000a      (effects (font (size 1 1) (thickness 0.15)))\u000a    )\u000a    (fp_line (start -2 1) (end -2 -1) (layer F.SilkS) (width 0.12))\u000a    (fp_line (start 2 1) (end -2 1) (layer F.SilkS) (width 0.12))\u000a    (fp_line (start 2 -1) (end 2 1) (layer F.SilkS) (width 0.12))\u000a    (fp_line (start -2 -1) (end 2 -1) (layer F.SilkS) (width 0.12))\u000a    (pad 2 thru_hole oval (at -3.81 0 270) (size 1.8 3) (drill 0.9) (layers *.Cu *.Mask)\u000a      (net 12 /Sheet63D6B888/sheet63C11D15/sheet63BD3BA9/a))\u000a    (pad 1 thru_hole oval (at 3.81 0 270) (size 1.8 3) (drill 0.9) (layers *.Cu *.Mask)\u000a      (net 2 +5V))\u000a  )\u000a\u000a  (module processor2:resistor_tight (layer F.Cu) (tedit 63B98E0F) (tstamp 63BCCE42)\u000a    (at 60.472 110.329512 180)\u000a    (path /63D6B889/63C11D1C/63BD65B6/63BD433F/63B95328)\u000a    (fp_text reference R62 (at 0 0) (layer F.SilkS)\u000a      (effects (font (size 1 1) (thickness 0.15)))\u000a    )\u000a    (fp_text value R (at 0 -2.54) (layer F.Fab)\u000a      (effects (font (size 1 1) (thickness 0.15)))\u000a    )\u000a    (fp_line (start -2 1) (end -2 -1) (layer F.SilkS) (width 0.12))\u000a    (fp_line (start 2 1) (end -2 1) (layer F.SilkS) (width 0.12))\u000a    (fp_line (start 2 -1) (end 2 1) (layer F.SilkS) (width 0.12))\u000a    (fp_line (start -2 -1) (end 2 -1) (layer F.SilkS) (width 0.12))\u000a    (pad 2 thru_hole oval (at -3.81 0 270) (size 1.8 3) (drill 0.9) (layers *.Cu *.Mask)\u000a      (net 11 /Sheet63D6B888/Sheet63C11D93/b))\u000a    (pad 1 thru_hole oval (at 3.81 0 270) (size 1.8 3) (drill 0.9) (layers *.Cu *.Mask)\u000a      (net 2 +5V))\u000a  )\u000a\u000a  (module processor2:resistor_tight (layer F.Cu) (tedit 63B98E0F) (tstamp 63BCCE38)\u000a    (at 60.472 102.963512 180)\u000a    (path /63D6B889/63C11D1C/63BD65B6/63BD433A/63B95328)\u000a    (fp_text reference R61 (at 0 0) (layer F.SilkS)\u000a      (effects (font (size 1 1) (thickness 0.15)))\u000a    )\u000a    (fp_text value R (at 0 -2.54) (layer F.Fab)\u000a      (effects (font (size 1 1) (thickness 0.15)))\u000a    )\u000a    (fp_line (start -2 1) (end -2 -1) (layer F.SilkS) (width 0.12))\u000a    (fp_line (start 2 1) (end -2 1) (layer F.SilkS) (width 0.12))\u000a    (fp_line (start 2 -1) (end 2 1) (layer F.SilkS) (width 0.12))\u000a    (fp_line (start -2 -1) (end 2 -1) (layer F.SilkS) (width 0.12))\u000a    (pad 2 thru_hole oval (at -3.81 0 270) (size 1.8 3) (drill 0.9) (layers *.Cu *.Mask)\u000a      (net 20 /Sheet63D6B888/sheet63C11D15/sheet63BD65B1/sheet63BD432B/b))\u000a    (pad 1 thru_hole oval (at 3.81 0 270) (size 1.8 3) (drill 0.9) (layers *.Cu *.Mask)\u000a      (net 2 +5V))\u000a  )\u000a\u000a  (module processor2:resistor_tight (layer F.Cu) (tedit 63B98E0F) (tstamp 63BCCE2E)\u000a    (at 60.472 95.343512 180)\u000a    (path /63D6B889/63C11D1C/63BD65B6/63BD4335/63B95328)\u000a    (fp_text reference R60 (at 0 0) (layer F.SilkS)\u000a      (effects (font (size 1 1) (thickness 0.15)))\u000a    )\u000a    (fp_text value R (at 0 -2.54) (layer F.Fab)\u000a      (effects (font (size 1 1) (thickness 0.15)))\u000a    )\u000a    (fp_line (start -2 1) (end -2 -1) (layer F.SilkS) (width 0.12))\u000a    (fp_line (start 2 1) (end -2 1) (layer F.SilkS) (width 0.12))\u000a    (fp_line (start 2 -1) (end 2 1) (layer F.SilkS) (width 0.12))\u000a    (fp_line (start -2 -1) (end 2 -1) (layer F.SilkS) (width 0.12))\u000a    (pad 2 thru_hole oval (at -3.81 0 270) (size 1.8 3) (drill 0.9) (layers *.Cu *.Mask)\u000a      (net 17 /Sheet63D6B888/sheet63C11D15/sheet63BD65B1/sheet63BD432B/a))\u000a    (pad 1 thru_hole oval (at 3.81 0 270) (size 1.8 3) (drill 0.9) (layers *.Cu *.Mask)\u000a      (net 2 +5V))\u000a  )\u000a\u000a  (module processor2:resistor_tight (layer F.Cu) (tedit 63B98E0F) (tstamp 63BCCE24)\u000a    (at 60.726 87.723512 180)\u000a    (path /63D6B889/63C11D1C/63BD65B6/63BD4330/63B95328)\u000a    (fp_text reference R59 (at 0 0) (layer F.SilkS)\u000a      (effects (font (size 1 1) (thickness 0.15)))\u000a    )\u000a    (fp_text value R (at 0 -2.54) (layer F.Fab)\u000a      (effects (font (size 1 1) (thickness 0.15)))\u000a    )\u000a    (fp_line (start -2 1) (end -2 -1) (layer F.SilkS) (width 0.12))\u000a    (fp_line (start 2 1) (end -2 1) (layer F.SilkS) (width 0.12))\u000a    (fp_line (start 2 -1) (end 2 1) (layer F.SilkS) (width 0.12))\u000a    (fp_line (start -2 -1) (end 2 -1) (layer F.SilkS) (width 0.12))\u000a    (pad 2 thru_hole oval (at -3.81 0 270) (size 1.8 3) (drill 0.9) (layers *.Cu *.Mask)\u000a      (net 14 /Sheet63D6B888/sheet63C11D15/sheet63BD3BA9/b))\u000a    (pad 1 thru_hole oval (at 3.81 0 270) (size 1.8 3) (drill 0.9) (layers *.Cu *.Mask)\u000a      (net 2 +5V))\u000a  )\u000a\u000a  (module processor2:resistor_tight (layer F.Cu) (tedit 63B98E0F) (tstamp 63BCCE1A)\u000a    (at 60.398 118.219512 180)\u000a    (path /63D6B889/63C11D1C/63BD3BAE/63B95328)\u000a    (fp_text reference R58 (at 0 0) (layer F.SilkS)\u000a      (effects (font (size 1 1) (thickness 0.15)))\u000a    )\u000a    (fp_text value R (at 0 -2.54) (layer F.Fab)\u000a      (effects (font (size 1 1) (thickness 0.15)))\u000a    )\u000a    (fp_line (start -2 1) (end -2 -1) (layer F.SilkS) (width 0.12))\u000a    (fp_line (start 2 1) (end -2 1) (layer F.SilkS) (width 0.12))\u000a    (fp_line (start 2 -1) (end 2 1) (layer F.SilkS) (width 0.12))\u000a    (fp_line (start -2 -1) (end 2 -1) (layer F.SilkS) (width 0.12))\u000a    (pad 2 thru_hole oval (at -3.81 0 270) (size 1.8 3) (drill 0.9) (layers *.Cu *.Mask)\u000a      (net 8 /sheet63D7C1B8/cin))\u000a    (pad 1 thru_hole oval (at 3.81 0 270) (size 1.8 3) (drill 0.9) (layers *.Cu *.Mask)\u000a      (net 2 +5V))\u000a  )\u000a\u000a  (module processor2:resistor_tight (layer F.Cu) (tedit 63B98E0F) (tstamp 63BCCE10)\u000a    (at 59.182 134.112)\u000a    (path /63D6B889/63C11DD7/63B94693)\u000a    (fp_text reference R57 (at 0 0) (layer F.SilkS)\u000a      (effects (font (size 1 1) (thickness 0.15)))\u000a    )\u000a    (fp_text value R (at 0 -2.54) (layer F.Fab)\u000a      (effects (font (size 1 1) (thickness 0.15)))\u000a    )\u000a    (fp_line (start -2 1) (end -2 -1) (layer F.SilkS) (width 0.12))\u000a    (fp_line (start 2 1) (end -2 1) (layer F.SilkS) (width 0.12))\u000a    (fp_line (start 2 -1) (end 2 1) (layer F.SilkS) (width 0.12))\u000a    (fp_line (start -2 -1) (end 2 -1) (layer F.SilkS) (width 0.12))\u000a    (pad 2 thru_hole oval (at -3.81 0 90) (size 1.8 3) (drill 0.9) (layers *.Cu *.Mask)\u000a      (net 7 /Sheet63C79D9A/out))\u000a    (pad 1 thru_hole oval (at 3.81 0 90) (size 1.8 3) (drill 0.9) (layers *.Cu *.Mask)\u000a      (net 2 +5V))\u000a  )\u000a\u000a  (module processor2:resistor_tight (layer F.Cu) (tedit 63B98E0F) (tstamp 63BCCE06)\u000a    (at 60.688 126.065512 180)\u000a    (path /63D6B889/63C11D94/63B95328)\u000a    (fp_text reference R56 (at 0 0) (layer F.SilkS)\u000a      (effects (font (size 1 1) (thickness 0.15)))\u000a    )\u000a    (fp_text value R (at 0 -2.54) (layer F.Fab)\u000a      (effects (font (size 1 1) (thickness 0.15)))\u000a    )\u000a    (fp_line (start -2 1) (end -2 -1) (layer F.SilkS) (width 0.12))\u000a    (fp_line (start 2 1) (end -2 1) (layer F.SilkS) (width 0.12))\u000a    (fp_line (start 2 -1) (end 2 1) (layer F.SilkS) (width 0.12))\u000a    (fp_line (start -2 -1) (end 2 -1) (layer F.SilkS) (width 0.12))\u000a    (pad 2 thru_hole oval (at -3.81 0 270) (size 1.8 3) (drill 0.9) (layers *.Cu *.Mask)\u000a      (net 9 /Sheet63D6B888/Sheet63C11DD6/in))\u000a    (pad 1 thru_hole oval (at 3.81 0 270) (size 1.8 3) (drill 0.9) (layers *.Cu *.Mask)\u000a      (net 2 +5V))\u000a  )\u000a\u000a  (module processor2:2n7000_tight (layer F.Cu) (tedit 63BAECD3) (tstamp 63BCCBD6)\u000a    (at 53.848 83.312)\u000a    (path /63D6B889/63C11D1C/63BD3FAF/63BD433F/63B943F5)\u000a    (fp_text reference Q126 (at 0 1.5) (layer F.SilkS)\u000a      (effects (font (size 0.5 0.5) (thickness 0.125)))\u000a    )\u000a    (fp_text value 2N7000 (at 0 -3.81) (layer F.Fab)\u000a      (effects (font (size 1 1) (thickness 0.15)))\u000a    )\u000a    (fp_arc (start 1.3 0.3) (end 4 0) (angle -56.33591695) (layer F.SilkS) (width 0.12))\u000a    (fp_arc (start -1.3 0.3) (end -2.539999 -2.099999) (angle -56.33592606) (layer F.SilkS) (width 0.12))\u000a    (fp_line (start 4 2.1) (end -4 2.1) (layer F.SilkS) (width 0.12))\u000a    (fp_line (start 4 0) (end 4 2.1) (layer F.SilkS) (width 0.12))\u000a    (fp_line (start -2.54 -2.1) (end 2.54 -2.1) (layer F.SilkS) (width 0.12))\u000a    (fp_line (start -4 2.1) (end -4 0) (layer F.SilkS) (width 0.12))\u000a    (pad 3 thru_hole oval (at 2.5 1) (size 1.8 3) (drill 0.9 (offset 0 -0.5)) (layers *.Cu *.Mask)\u000a      (net 29 "Net-(Q125-Pad1)"))\u000a    (pad 2 thru_hole oval (at 0 -1) (size 1.8 3) (drill 0.9 (offset 0 0.5)) (layers *.Cu *.Mask)\u000a      (net 27 /Sheet63D6B888/sheet63C11D15/Sheet63BD3FAE/sheet63BD432B/b))\u000a    (pad 1 thru_hole oval (at -2.5 1) (size 1.8 3) (drill 0.9 (offset 0 -0.5)) (layers *.Cu *.Mask)\u000a      (net 1 GND))\u000a  )\u000a\u000a  (module processor2:2n7000_tight (layer F.Cu) (tedit 63BAECD3) (tstamp 63BCCBC9)\u000a    (at 62.016 83.328)\u000a    (path /63D6B889/63C11D1C/63BD3FAF/63BD433F/63B94A25)\u000a    (fp_text reference Q125 (at 0 1.5) (layer F.SilkS)\u000a      (effects (font (size 0.5 0.5) (thickness 0.125)))\u000a    )\u000a    (fp_text value 2N7000 (at 0 -3.81) (layer F.Fab)\u000a      (effects (font (size 1 1) (thickness 0.15)))\u000a    )\u000a    (fp_arc (start 1.3 0.3) (end 4 0) (angle -56.33591695) (layer F.SilkS) (width 0.12))\u000a    (fp_arc (start -1.3 0.3) (end -2.539999 -2.099999) (angle -56.33592606) (layer F.SilkS) (width 0.12))\u000a    (fp_line (start 4 2.1) (end -4 2.1) (layer F.SilkS) (width 0.12))\u000a    (fp_line (start 4 0) (end 4 2.1) (layer F.SilkS) (width 0.12))\u000a    (fp_line (start -2.54 -2.1) (end 2.54 -2.1) (layer F.SilkS) (width 0.12))\u000a    (fp_line (start -4 2.1) (end -4 0) (layer F.SilkS) (width 0.12))\u000a    (pad 3 thru_hole oval (at 2.5 1) (size 1.8 3) (drill 0.9 (offset 0 -0.5)) (layers *.Cu *.Mask)\u000a      (net 15 /Sheet63D6B888/sheet63C11D15/sheet63BD65B1/a))\u000a    (pad 2 thru_hole oval (at 0 -1) (size 1.8 3) (drill 0.9 (offset 0 0.5)) (layers *.Cu *.Mask)\u000a      (net 24 /Sheet63D6B888/sheet63C11D15/Sheet63BD3FAE/sheet63BD432B/a))\u000a    (pad 1 thru_hole oval (at -2.5 1) (size 1.8 3) (drill 0.9 (offset 0 -0.5)) (layers *.Cu *.Mask)\u000a      (net 29 "Net-(Q125-Pad1)"))\u000a  )\u000a\u000a  (module processor2:2n7000_tight (layer F.Cu) (tedit 63BAECD3) (tstamp 63BCCBBC)\u000a    (at 53.848 75.946)\u000a    (path /63D6B889/63C11D1C/63BD3FAF/63BD433A/63B943F5)\u000a    (fp_text reference Q124 (at 0 1.5) (layer F.SilkS)\u000a      (effects (font (size 0.5 0.5) (thickness 0.125)))\u000a    )\u000a    (fp_text value 2N7000 (at 0 -3.81) (layer F.Fab)\u000a      (effects (font (size 1 1) (thickness 0.15)))\u000a    )\u000a    (fp_arc (start 1.3 0.3) (end 4 0) (angle -56.33591695) (layer F.SilkS) (width 0.12))\u000a    (fp_arc (start -1.3 0.3) (end -2.539999 -2.099999) (angle -56.33592606) (layer F.SilkS) (width 0.12))\u000a    (fp_line (start 4 2.1) (end -4 2.1) (layer F.SilkS) (width 0.12))\u000a    (fp_line (start 4 0) (end 4 2.1) (layer F.SilkS) (width 0.12))\u000a    (fp_line (start -2.54 -2.1) (end 2.54 -2.1) (layer F.SilkS) (width 0.12))\u000a    (fp_line (start -4 2.1) (end -4 0) (layer F.SilkS) (width 0.12))\u000a    (pad 3 thru_hole oval (at 2.5 1) (size 1.8 3) (drill 0.9 (offset 0 -0.5)) (layers *.Cu *.Mask)\u000a      (net 28 "Net-(Q123-Pad1)"))\u000a    (pad 2 thru_hole oval (at 0 -1) (size 1.8 3) (drill 0.9 (offset 0 0.5)) (layers *.Cu *.Mask)\u000a      (net 3 /Sheet63D6B888/b))\u000a    (pad 1 thru_hole oval (at -2.5 1) (size 1.8 3) (drill 0.9 (offset 0 -0.5)) (layers *.Cu *.Mask)\u000a      (net 1 GND))\u000a  )\u000a\u000a  (module processor2:2n7000_tight (layer F.Cu) (tedit 63BAECD3) (tstamp 63BCCBAF)\u000a    (at 62.016 75.962)\u000a    (path /63D6B889/63C11D1C/63BD3FAF/63BD433A/63B94A25)\u000a    (fp_text reference Q123 (at 0 1.5) (layer F.SilkS)\u000a      (effects (font (size 0.5 0.5) (thickness 0.125)))\u000a    )\u000a    (fp_text value 2N7000 (at 0 -3.81) (layer F.Fab)\u000a      (effects (font (size 1 1) (thickness 0.15)))\u000a    )\u000a    (fp_arc (start 1.3 0.3) (end 4 0) (angle -56.33591695) (layer F.SilkS) (width 0.12))\u000a    (fp_arc (start -1.3 0.3) (end -2.539999 -2.099999) (angle -56.33592606) (layer F.SilkS) (width 0.12))\u000a    (fp_line (start 4 2.1) (end -4 2.1) (layer F.SilkS) (width 0.12))\u000a    (fp_line (start 4 0) (end 4 2.1) (layer F.SilkS) (width 0.12))\u000a    (fp_line (start -2.54 -2.1) (end 2.54 -2.1) (layer F.SilkS) (width 0.12))\u000a    (fp_line (start -4 2.1) (end -4 0) (layer F.SilkS) (width 0.12))\u000a    (pad 3 thru_hole oval (at 2.5 1) (size 1.8 3) (drill 0.9 (offset 0 -0.5)) (layers *.Cu *.Mask)\u000a      (net 27 /Sheet63D6B888/sheet63C11D15/Sheet63BD3FAE/sheet63BD432B/b))\u000a    (pad 2 thru_hole oval (at 0 -1) (size 1.8 3) (drill 0.9 (offset 0 0.5)) (layers *.Cu *.Mask)\u000a      (net 12 /Sheet63D6B888/sheet63C11D15/sheet63BD3BA9/a))\u000a    (pad 1 thru_hole oval (at -2.5 1) (size 1.8 3) (drill 0.9 (offset 0 -0.5)) (layers *.Cu *.Mask)\u000a      (net 28 "Net-(Q123-Pad1)"))\u000a  )\u000a\u000a  (module processor2:2n7000_tight (layer F.Cu) (tedit 63BAECD3) (tstamp 63BCCBA2)\u000a    (at 53.848 68.326)\u000a    (path /63D6B889/63C11D1C/63BD3FAF/63BD4335/63B943F5)\u000a    (fp_text reference Q122 (at 0 1.5) (layer F.SilkS)\u000a      (effects (font (size 0.5 0.5) (thickness 0.125)))\u000a    )\u000a    (fp_text value 2N7000 (at 0 -3.81) (layer F.Fab)\u000a      (effects (font (size 1 1) (thickness 0.15)))\u000a    )\u000a    (fp_arc (start 1.3 0.3) (end 4 0) (angle -56.33591695) (layer F.SilkS) (width 0.12))\u000a    (fp_arc (start -1.3 0.3) (end -2.539999 -2.099999) (angle -56.33592606) (layer F.SilkS) (width 0.12))\u000a    (fp_line (start 4 2.1) (end -4 2.1) (layer F.SilkS) (width 0.12))\u000a    (fp_line (start 4 0) (end 4 2.1) (layer F.SilkS) (width 0.12))\u000a    (fp_line (start -2.54 -2.1) (end 2.54 -2.1) (layer F.SilkS) (width 0.12))\u000a    (fp_line (start -4 2.1) (end -4 0) (layer F.SilkS) (width 0.12))\u000a    (pad 3 thru_hole oval (at 2.5 1) (size 1.8 3) (drill 0.9 (offset 0 -0.5)) (layers *.Cu *.Mask)\u000a      (net 26 "Net-(Q121-Pad1)"))\u000a    (pad 2 thru_hole oval (at 0 -1) (size 1.8 3) (drill 0.9 (offset 0 0.5)) (layers *.Cu *.Mask)\u000a      (net 12 /Sheet63D6B888/sheet63C11D15/sheet63BD3BA9/a))\u000a    (pad 1 thru_hole oval (at -2.5 1) (size 1.8 3) (drill 0.9 (offset 0 -0.5)) (layers *.Cu *.Mask)\u000a      (net 1 GND))\u000a  )\u000a\u000a  (module processor2:2n7000_tight (layer F.Cu) (tedit 63BAECD3) (tstamp 63BCCB95)\u000a    (at 62.016 68.342)\u000a    (path /63D6B889/63C11D1C/63BD3FAF/63BD4335/63B94A25)\u000a    (fp_text reference Q121 (at 0 1.5) (layer F.SilkS)\u000a      (effects (font (size 0.5 0.5) (thickness 0.125)))\u000a    )\u000a    (fp_text value 2N7000 (at 0 -3.81) (layer F.Fab)\u000a      (effects (font (size 1 1) (thickness 0.15)))\u000a    )\u000a    (fp_arc (start 1.3 0.3) (end 4 0) (angle -56.33591695) (layer F.SilkS) (width 0.12))\u000a    (fp_arc (start -1.3 0.3) (end -2.539999 -2.099999) (angle -56.33592606) (layer F.SilkS) (width 0.12))\u000a    (fp_line (start 4 2.1) (end -4 2.1) (layer F.SilkS) (width 0.12))\u000a    (fp_line (start 4 0) (end 4 2.1) (layer F.SilkS) (width 0.12))\u000a    (fp_line (start -2.54 -2.1) (end 2.54 -2.1) (layer F.SilkS) (width 0.12))\u000a    (fp_line (start -4 2.1) (end -4 0) (layer F.SilkS) (width 0.12))\u000a    (pad 3 thru_hole oval (at 2.5 1) (size 1.8 3) (drill 0.9 (offset 0 -0.5)) (layers *.Cu *.Mask)\u000a      (net 24 /Sheet63D6B888/sheet63C11D15/Sheet63BD3FAE/sheet63BD432B/a))\u000a    (pad 2 thru_hole oval (at 0 -1) (size 1.8 3) (drill 0.9 (offset 0 0.5)) (layers *.Cu *.Mask)\u000a      (net 25 /Sheet63D6B888/sheet63C11D15/Sheet63BD3FAE/sheet63BD4329/a))\u000a    (pad 1 thru_hole oval (at -2.5 1) (size 1.8 3) (drill 0.9 (offset 0 -0.5)) (layers *.Cu *.Mask)\u000a      (net 26 "Net-(Q121-Pad1)"))\u000a  )\u000a\u000a  (module processor2:2n7000_tight (layer F.Cu) (tedit 63BAECD3) (tstamp 63BCCB88)\u000a    (at 53.848 60.706)\u000a    (path /63D6B889/63C11D1C/63BD3FAF/63BD4330/63B943F5)\u000a    (fp_text reference Q120 (at 0 1.5) (layer F.SilkS)\u000a      (effects (font (size 0.5 0.5) (thickness 0.125)))\u000a    )\u000a    (fp_text value 2N7000 (at 0 -3.81) (layer F.Fab)\u000a      (effects (font (size 1 1) (thickness 0.15)))\u000a    )\u000a    (fp_arc (start 1.3 0.3) (end 4 0) (angle -56.33591695) (layer F.SilkS) (width 0.12))\u000a    (fp_arc (start -1.3 0.3) (end -2.539999 -2.099999) (angle -56.33592606) (layer F.SilkS) (width 0.12))\u000a    (fp_line (start 4 2.1) (end -4 2.1) (layer F.SilkS) (width 0.12))\u000a    (fp_line (start 4 0) (end 4 2.1) (layer F.SilkS) (width 0.12))\u000a    (fp_line (start -2.54 -2.1) (end 2.54 -2.1) (layer F.SilkS) (width 0.12))\u000a    (fp_line (start -4 2.1) (end -4 0) (layer F.SilkS) (width 0.12))\u000a    (pad 3 thru_hole oval (at 2.5 1) (size 1.8 3) (drill 0.9 (offset 0 -0.5)) (layers *.Cu *.Mask)\u000a      (net 23 "Net-(Q119-Pad1)"))\u000a    (pad 2 thru_hole oval (at 0 -1) (size 1.8 3) (drill 0.9 (offset 0 0.5)) (layers *.Cu *.Mask)\u000a      (net 3 /Sheet63D6B888/b))\u000a    (pad 1 thru_hole oval (at -2.5 1) (size 1.8 3) (drill 0.9 (offset 0 -0.5)) (layers *.Cu *.Mask)\u000a      (net 1 GND))\u000a  )\u000a\u000a  (module processor2:2n7000_tight (layer F.Cu) (tedit 63BAECD3) (tstamp 63BCCB7B)\u000a    (at 62.016 60.722)\u000a    (path /63D6B889/63C11D1C/63BD3FAF/63BD4330/63B94A25)\u000a    (fp_text reference Q119 (at 0 1.5) (layer F.SilkS)\u000a      (effects (font (size 0.5 0.5) (thickness 0.125)))\u000a    )\u000a    (fp_text value 2N7000 (at 0 -3.81) (layer F.Fab)\u000a      (effects (font (size 1 1) (thickness 0.15)))\u000a    )\u000a    (fp_arc (start 1.3 0.3) (end 4 0) (angle -56.33591695) (layer F.SilkS) (width 0.12))\u000a    (fp_arc (start -1.3 0.3) (end -2.539999 -2.099999) (angle -56.33592606) (layer F.SilkS) (width 0.12))\u000a    (fp_line (start 4 2.1) (end -4 2.1) (layer F.SilkS) (width 0.12))\u000a    (fp_line (start 4 0) (end 4 2.1) (layer F.SilkS) (width 0.12))\u000a    (fp_line (start -2.54 -2.1) (end 2.54 -2.1) (layer F.SilkS) (width 0.12))\u000a    (fp_line (start -4 2.1) (end -4 0) (layer F.SilkS) (width 0.12))\u000a    (pad 3 thru_hole oval (at 2.5 1) (size 1.8 3) (drill 0.9 (offset 0 -0.5)) (layers *.Cu *.Mask)\u000a      (net 12 /Sheet63D6B888/sheet63C11D15/sheet63BD3BA9/a))\u000a    (pad 2 thru_hole oval (at 0 -1) (size 1.8 3) (drill 0.9 (offset 0 0.5)) (layers *.Cu *.Mask)\u000a      (net 4 /Sheet63D6B888/a))\u000a    (pad 1 thru_hole oval (at -2.5 1) (size 1.8 3) (drill 0.9 (offset 0 -0.5)) (layers *.Cu *.Mask)\u000a      (net 23 "Net-(Q119-Pad1)"))\u000a  )\u000a\u000a  (module processor2:2n7000_tight (layer F.Cu) (tedit 63BAECD3) (tstamp 63BCCB6E)\u000a    (at 54.122 113.631512)\u000a    (path /63D6B889/63C11D1C/63BD65B6/63BD433F/63B943F5)\u000a    (fp_text reference Q118 (at 0 1.5) (layer F.SilkS)\u000a      (effects (font (size 0.5 0.5) (thickness 0.125)))\u000a    )\u000a    (fp_text value 2N7000 (at 0 -3.81) (layer F.Fab)\u000a      (effects (font (size 1 1) (thickness 0.15)))\u000a    )\u000a    (fp_arc (start 1.3 0.3) (end 4 0) (angle -56.33591695) (layer F.SilkS) (width 0.12))\u000a    (fp_arc (start -1.3 0.3) (end -2.539999 -2.099999) (angle -56.33592606) (layer F.SilkS) (width 0.12))\u000a    (fp_line (start 4 2.1) (end -4 2.1) (layer F.SilkS) (width 0.12))\u000a    (fp_line (start 4 0) (end 4 2.1) (layer F.SilkS) (width 0.12))\u000a    (fp_line (start -2.54 -2.1) (end 2.54 -2.1) (layer F.SilkS) (width 0.12))\u000a    (fp_line (start -4 2.1) (end -4 0) (layer F.SilkS) (width 0.12))\u000a    (pad 3 thru_hole oval (at 2.5 1) (size 1.8 3) (drill 0.9 (offset 0 -0.5)) (layers *.Cu *.Mask)\u000a      (net 22 "Net-(Q117-Pad1)"))\u000a    (pad 2 thru_hole oval (at 0 -1) (size 1.8 3) (drill 0.9 (offset 0 0.5)) (layers *.Cu *.Mask)\u000a      (net 20 /Sheet63D6B888/sheet63C11D15/sheet63BD65B1/sheet63BD432B/b))\u000a    (pad 1 thru_hole oval (at -2.5 1) (size 1.8 3) (drill 0.9 (offset 0 -0.5)) (layers *.Cu *.Mask)\u000a      (net 1 GND))\u000a  )\u000a\u000a  (module processor2:2n7000_tight (layer F.Cu) (tedit 63BAECD3) (tstamp 63BCCB61)\u000a    (at 62.29 113.647512)\u000a    (path /63D6B889/63C11D1C/63BD65B6/63BD433F/63B94A25)\u000a    (fp_text reference Q117 (at 0 1.5) (layer F.SilkS)\u000a      (effects (font (size 0.5 0.5) (thickness 0.125)))\u000a    )\u000a    (fp_text value 2N7000 (at 0 -3.81) (layer F.Fab)\u000a      (effects (font (size 1 1) (thickness 0.15)))\u000a    )\u000a    (fp_arc (start 1.3 0.3) (end 4 0) (angle -56.33591695) (layer F.SilkS) (width 0.12))\u000a    (fp_arc (start -1.3 0.3) (end -2.539999 -2.099999) (angle -56.33592606) (layer F.SilkS) (width 0.12))\u000a    (fp_line (start 4 2.1) (end -4 2.1) (layer F.SilkS) (width 0.12))\u000a    (fp_line (start 4 0) (end 4 2.1) (layer F.SilkS) (width 0.12))\u000a    (fp_line (start -2.54 -2.1) (end 2.54 -2.1) (layer F.SilkS) (width 0.12))\u000a    (fp_line (start -4 2.1) (end -4 0) (layer F.SilkS) (width 0.12))\u000a    (pad 3 thru_hole oval (at 2.5 1) (size 1.8 3) (drill 0.9 (offset 0 -0.5)) (layers *.Cu *.Mask)\u000a      (net 11 /Sheet63D6B888/Sheet63C11D93/b))\u000a    (pad 2 thru_hole oval (at 0 -1) (size 1.8 3) (drill 0.9 (offset 0 0.5)) (layers *.Cu *.Mask)\u000a      (net 17 /Sheet63D6B888/sheet63C11D15/sheet63BD65B1/sheet63BD432B/a))\u000a    (pad 1 thru_hole oval (at -2.5 1) (size 1.8 3) (drill 0.9 (offset 0 -0.5)) (layers *.Cu *.Mask)\u000a      (net 22 "Net-(Q117-Pad1)"))\u000a  )\u000a\u000a  (module processor2:2n7000_tight (layer F.Cu) (tedit 63BAECD3) (tstamp 63BCCB54)\u000a    (at 54.122 106.265512)\u000a    (path /63D6B889/63C11D1C/63BD65B6/63BD433A/63B943F5)\u000a    (fp_text reference Q116 (at 0 1.5) (layer F.SilkS)\u000a      (effects (font (size 0.5 0.5) (thickness 0.125)))\u000a    )\u000a    (fp_text value 2N7000 (at 0 -3.81) (layer F.Fab)\u000a      (effects (font (size 1 1) (thickness 0.15)))\u000a    )\u000a    (fp_arc (start 1.3 0.3) (end 4 0) (angle -56.33591695) (layer F.SilkS) (width 0.12))\u000a    (fp_arc (start -1.3 0.3) (end -2.539999 -2.099999) (angle -56.33592606) (layer F.SilkS) (width 0.12))\u000a    (fp_line (start 4 2.1) (end -4 2.1) (layer F.SilkS) (width 0.12))\u000a    (fp_line (start 4 0) (end 4 2.1) (layer F.SilkS) (width 0.12))\u000a    (fp_line (start -2.54 -2.1) (end 2.54 -2.1) (layer F.SilkS) (width 0.12))\u000a    (fp_line (start -4 2.1) (end -4 0) (layer F.SilkS) (width 0.12))\u000a    (pad 3 thru_hole oval (at 2.5 1) (size 1.8 3) (drill 0.9 (offset 0 -0.5)) (layers *.Cu *.Mask)\u000a      (net 21 "Net-(Q115-Pad1)"))\u000a    (pad 2 thru_hole oval (at 0 -1) (size 1.8 3) (drill 0.9 (offset 0 0.5)) (layers *.Cu *.Mask)\u000a      (net 6 /Sheet63D6B888/cin))\u000a    (pad 1 thru_hole oval (at -2.5 1) (size 1.8 3) (drill 0.9 (offset 0 -0.5)) (layers *.Cu *.Mask)\u000a      (net 1 GND))\u000a  )\u000a\u000a  (module processor2:2n7000_tight (layer F.Cu) (tedit 63BAECD3) (tstamp 63BCCB47)\u000a    (at 62.29 106.281512)\u000a    (path /63D6B889/63C11D1C/63BD65B6/63BD433A/63B94A25)\u000a    (fp_text reference Q115 (at 0 1.5) (layer F.SilkS)\u000a      (effects (font (size 0.5 0.5) (thickness 0.125)))\u000a    )\u000a    (fp_text value 2N7000 (at 0 -3.81) (layer F.Fab)\u000a      (effects (font (size 1 1) (thickness 0.15)))\u000a    )\u000a    (fp_arc (start 1.3 0.3) (end 4 0) (angle -56.33591695) (layer F.SilkS) (width 0.12))\u000a    (fp_arc (start -1.3 0.3) (end -2.539999 -2.099999) (angle -56.33592606) (layer F.SilkS) (width 0.12))\u000a    (fp_line (start 4 2.1) (end -4 2.1) (layer F.SilkS) (width 0.12))\u000a    (fp_line (start 4 0) (end 4 2.1) (layer F.SilkS) (width 0.12))\u000a    (fp_line (start -2.54 -2.1) (end 2.54 -2.1) (layer F.SilkS) (width 0.12))\u000a    (fp_line (start -4 2.1) (end -4 0) (layer F.SilkS) (width 0.12))\u000a    (pad 3 thru_hole oval (at 2.5 1) (size 1.8 3) (drill 0.9 (offset 0 -0.5)) (layers *.Cu *.Mask)\u000a      (net 20 /Sheet63D6B888/sheet63C11D15/sheet63BD65B1/sheet63BD432B/b))\u000a    (pad 2 thru_hole oval (at 0 -1) (size 1.8 3) (drill 0.9 (offset 0 0.5)) (layers *.Cu *.Mask)\u000a      (net 14 /Sheet63D6B888/sheet63C11D15/sheet63BD3BA9/b))\u000a    (pad 1 thru_hole oval (at -2.5 1) (size 1.8 3) (drill 0.9 (offset 0 -0.5)) (layers *.Cu *.Mask)\u000a      (net 21 "Net-(Q115-Pad1)"))\u000a  )\u000a\u000a  (module processor2:2n7000_tight (layer F.Cu) (tedit 63BAECD3) (tstamp 63BCCB3A)\u000a    (at 54.122 98.645512)\u000a    (path /63D6B889/63C11D1C/63BD65B6/63BD4335/63B943F5)\u000a    (fp_text reference Q114 (at 0 1.5) (layer F.SilkS)\u000a      (effects (font (size 0.5 0.5) (thickness 0.125)))\u000a    )\u000a    (fp_text value 2N7000 (at 0 -3.81) (layer F.Fab)\u000a      (effects (font (size 1 1) (thickness 0.15)))\u000a    )\u000a    (fp_arc (start 1.3 0.3) (end 4 0) (angle -56.33591695) (layer F.SilkS) (width 0.12))\u000a    (fp_arc (start -1.3 0.3) (end -2.539999 -2.099999) (angle -56.33592606) (layer F.SilkS) (width 0.12))\u000a    (fp_line (start 4 2.1) (end -4 2.1) (layer F.SilkS) (width 0.12))\u000a    (fp_line (start 4 0) (end 4 2.1) (layer F.SilkS) (width 0.12))\u000a    (fp_line (start -2.54 -2.1) (end 2.54 -2.1) (layer F.SilkS) (width 0.12))\u000a    (fp_line (start -4 2.1) (end -4 0) (layer F.SilkS) (width 0.12))\u000a    (pad 3 thru_hole oval (at 2.5 1) (size 1.8 3) (drill 0.9 (offset 0 -0.5)) (layers *.Cu *.Mask)\u000a      (net 19 "Net-(Q113-Pad1)"))\u000a    (pad 2 thru_hole oval (at 0 -1) (size 1.8 3) (drill 0.9 (offset 0 0.5)) (layers *.Cu *.Mask)\u000a      (net 14 /Sheet63D6B888/sheet63C11D15/sheet63BD3BA9/b))\u000a    (pad 1 thru_hole oval (at -2.5 1) (size 1.8 3) (drill 0.9 (offset 0 -0.5)) (layers *.Cu *.Mask)\u000a      (net 1 GND))\u000a  )\u000a\u000a  (module processor2:2n7000_tight (layer F.Cu) (tedit 63BAECD3) (tstamp 63BCCB2D)\u000a    (at 62.29 98.661512)\u000a    (path /63D6B889/63C11D1C/63BD65B6/63BD4335/63B94A25)\u000a    (fp_text reference Q113 (at 0 1.5) (layer F.SilkS)\u000a      (effects (font (size 0.5 0.5) (thickness 0.125)))\u000a    )\u000a    (fp_text value 2N7000 (at 0 -3.81) (layer F.Fab)\u000a      (effects (font (size 1 1) (thickness 0.15)))\u000a    )\u000a    (fp_arc (start 1.3 0.3) (end 4 0) (angle -56.33591695) (layer F.SilkS) (width 0.12))\u000a    (fp_arc (start -1.3 0.3) (end -2.539999 -2.099999) (angle -56.33592606) (layer F.SilkS) (width 0.12))\u000a    (fp_line (start 4 2.1) (end -4 2.1) (layer F.SilkS) (width 0.12))\u000a    (fp_line (start 4 0) (end 4 2.1) (layer F.SilkS) (width 0.12))\u000a    (fp_line (start -2.54 -2.1) (end 2.54 -2.1) (layer F.SilkS) (width 0.12))\u000a    (fp_line (start -4 2.1) (end -4 0) (layer F.SilkS) (width 0.12))\u000a    (pad 3 thru_hole oval (at 2.5 1) (size 1.8 3) (drill 0.9 (offset 0 -0.5)) (layers *.Cu *.Mask)\u000a      (net 17 /Sheet63D6B888/sheet63C11D15/sheet63BD65B1/sheet63BD432B/a))\u000a    (pad 2 thru_hole oval (at 0 -1) (size 1.8 3) (drill 0.9 (offset 0 0.5)) (layers *.Cu *.Mask)\u000a      (net 18 /Sheet63D6B888/sheet63C11D15/sheet63BD65B1/sheet63BD4329/a))\u000a    (pad 1 thru_hole oval (at -2.5 1) (size 1.8 3) (drill 0.9 (offset 0 -0.5)) (layers *.Cu *.Mask)\u000a      (net 19 "Net-(Q113-Pad1)"))\u000a  )\u000a\u000a  (module processor2:2n7000_tight (layer F.Cu) (tedit 63BAECD3) (tstamp 63BCCB20)\u000a    (at 54.376 91.025512)\u000a    (path /63D6B889/63C11D1C/63BD65B6/63BD4330/63B943F5)\u000a    (fp_text reference Q112 (at 0 1.5) (layer F.SilkS)\u000a      (effects (font (size 0.5 0.5) (thickness 0.125)))\u000a    )\u000a    (fp_text value 2N7000 (at 0 -3.81) (layer F.Fab)\u000a      (effects (font (size 1 1) (thickness 0.15)))\u000a    )\u000a    (fp_arc (start 1.3 0.3) (end 4 0) (angle -56.33591695) (layer F.SilkS) (width 0.12))\u000a    (fp_arc (start -1.3 0.3) (end -2.539999 -2.099999) (angle -56.33592606) (layer F.SilkS) (width 0.12))\u000a    (fp_line (start 4 2.1) (end -4 2.1) (layer F.SilkS) (width 0.12))\u000a    (fp_line (start 4 0) (end 4 2.1) (layer F.SilkS) (width 0.12))\u000a    (fp_line (start -2.54 -2.1) (end 2.54 -2.1) (layer F.SilkS) (width 0.12))\u000a    (fp_line (start -4 2.1) (end -4 0) (layer F.SilkS) (width 0.12))\u000a    (pad 3 thru_hole oval (at 2.5 1) (size 1.8 3) (drill 0.9 (offset 0 -0.5)) (layers *.Cu *.Mask)\u000a      (net 16 "Net-(Q111-Pad1)"))\u000a    (pad 2 thru_hole oval (at 0 -1) (size 1.8 3) (drill 0.9 (offset 0 0.5)) (layers *.Cu *.Mask)\u000a      (net 6 /Sheet63D6B888/cin))\u000a    (pad 1 thru_hole oval (at -2.5 1) (size 1.8 3) (drill 0.9 (offset 0 -0.5)) (layers *.Cu *.Mask)\u000a      (net 1 GND))\u000a  )\u000a\u000a  (module processor2:2n7000_tight (layer F.Cu) (tedit 63BAECD3) (tstamp 63BCCB13)\u000a    (at 62.544 91.041512)\u000a    (path /63D6B889/63C11D1C/63BD65B6/63BD4330/63B94A25)\u000a    (fp_text reference Q111 (at 0 1.5) (layer F.SilkS)\u000a      (effects (font (size 0.5 0.5) (thickness 0.125)))\u000a    )\u000a    (fp_text value 2N7000 (at 0 -3.81) (layer F.Fab)\u000a      (effects (font (size 1 1) (thickness 0.15)))\u000a    )\u000a    (fp_arc (start 1.3 0.3) (end 4 0) (angle -56.33591695) (layer F.SilkS) (width 0.12))\u000a    (fp_arc (start -1.3 0.3) (end -2.539999 -2.099999) (angle -56.33592606) (layer F.SilkS) (width 0.12))\u000a    (fp_line (start 4 2.1) (end -4 2.1) (layer F.SilkS) (width 0.12))\u000a    (fp_line (start 4 0) (end 4 2.1) (layer F.SilkS) (width 0.12))\u000a    (fp_line (start -2.54 -2.1) (end 2.54 -2.1) (layer F.SilkS) (width 0.12))\u000a    (fp_line (start -4 2.1) (end -4 0) (layer F.SilkS) (width 0.12))\u000a    (pad 3 thru_hole oval (at 2.5 1) (size 1.8 3) (drill 0.9 (offset 0 -0.5)) (layers *.Cu *.Mask)\u000a      (net 14 /Sheet63D6B888/sheet63C11D15/sheet63BD3BA9/b))\u000a    (pad 2 thru_hole oval (at 0 -1) (size 1.8 3) (drill 0.9 (offset 0 0.5)) (layers *.Cu *.Mask)\u000a      (net 15 /Sheet63D6B888/sheet63C11D15/sheet63BD65B1/a))\u000a    (pad 1 thru_hole oval (at -2.5 1) (size 1.8 3) (drill 0.9 (offset 0 -0.5)) (layers *.Cu *.Mask)\u000a      (net 16 "Net-(Q111-Pad1)"))\u000a  )\u000a\u000a  (module processor2:2n7000_tight (layer F.Cu) (tedit 63BAECD3) (tstamp 63BCCB06)\u000a    (at 54.048 121.521512)\u000a    (path /63D6B889/63C11D1C/63BD3BAE/63B943F5)\u000a    (fp_text reference Q110 (at 0 1.5) (layer F.SilkS)\u000a      (effects (font (size 0.5 0.5) (thickness 0.125)))\u000a    )\u000a    (fp_text value 2N7000 (at 0 -3.81) (layer F.Fab)\u000a      (effects (font (size 1 1) (thickness 0.15)))\u000a    )\u000a    (fp_arc (start 1.3 0.3) (end 4 0) (angle -56.33591695) (layer F.SilkS) (width 0.12))\u000a    (fp_arc (start -1.3 0.3) (end -2.539999 -2.099999) (angle -56.33592606) (layer F.SilkS) (width 0.12))\u000a    (fp_line (start 4 2.1) (end -4 2.1) (layer F.SilkS) (width 0.12))\u000a    (fp_line (start 4 0) (end 4 2.1) (layer F.SilkS) (width 0.12))\u000a    (fp_line (start -2.54 -2.1) (end 2.54 -2.1) (layer F.SilkS) (width 0.12))\u000a    (fp_line (start -4 2.1) (end -4 0) (layer F.SilkS) (width 0.12))\u000a    (pad 3 thru_hole oval (at 2.5 1) (size 1.8 3) (drill 0.9 (offset 0 -0.5)) (layers *.Cu *.Mask)\u000a      (net 13 "Net-(Q109-Pad1)"))\u000a    (pad 2 thru_hole oval (at 0 -1) (size 1.8 3) (drill 0.9 (offset 0 0.5)) (layers *.Cu *.Mask)\u000a      (net 14 /Sheet63D6B888/sheet63C11D15/sheet63BD3BA9/b))\u000a    (pad 1 thru_hole oval (at -2.5 1) (size 1.8 3) (drill 0.9 (offset 0 -0.5)) (layers *.Cu *.Mask)\u000a      (net 1 GND))\u000a  )\u000a\u000a  (module processor2:2n7000_tight (layer F.Cu) (tedit 63BAECD3) (tstamp 63BCCAF9)\u000a    (at 62.216 121.537512)\u000a    (path /63D6B889/63C11D1C/63BD3BAE/63B94A25)\u000a    (fp_text reference Q109 (at 0 1.5) (layer F.SilkS)\u000a      (effects (font (size 0.5 0.5) (thickness 0.125)))\u000a    )\u000a    (fp_text value 2N7000 (at 0 -3.81) (layer F.Fab)\u000a      (effects (font (size 1 1) (thickness 0.15)))\u000a    )\u000a    (fp_arc (start 1.3 0.3) (end 4 0) (angle -56.33591695) (layer F.SilkS) (width 0.12))\u000a    (fp_arc (start -1.3 0.3) (end -2.539999 -2.099999) (angle -56.33592606) (layer F.SilkS) (width 0.12))\u000a    (fp_line (start 4 2.1) (end -4 2.1) (layer F.SilkS) (width 0.12))\u000a    (fp_line (start 4 0) (end 4 2.1) (layer F.SilkS) (width 0.12))\u000a    (fp_line (start -2.54 -2.1) (end 2.54 -2.1) (layer F.SilkS) (width 0.12))\u000a    (fp_line (start -4 2.1) (end -4 0) (layer F.SilkS) (width 0.12))\u000a    (pad 3 thru_hole oval (at 2.5 1) (size 1.8 3) (drill 0.9 (offset 0 -0.5)) (layers *.Cu *.Mask)\u000a      (net 8 /sheet63D7C1B8/cin))\u000a    (pad 2 thru_hole oval (at 0 -1) (size 1.8 3) (drill 0.9 (offset 0 0.5)) (layers *.Cu *.Mask)\u000a      (net 12 /Sheet63D6B888/sheet63C11D15/sheet63BD3BA9/a))\u000a    (pad 1 thru_hole oval (at -2.5 1) (size 1.8 3) (drill 0.9 (offset 0 -0.5)) (layers *.Cu *.Mask)\u000a      (net 13 "Net-(Q109-Pad1)"))\u000a  )\u000a\u000a  (module processor2:2n7000_tight (layer F.Cu) (tedit 63BAECD3) (tstamp 63BCCAEC)\u000a    (at 58.42 137.668)\u000a    (path /63D6B889/63C11DD7/63B944D7)\u000a    (fp_text reference Q108 (at 0 1.5) (layer F.SilkS)\u000a      (effects (font (size 0.5 0.5) (thickness 0.125)))\u000a    )\u000a    (fp_text value 2N7000 (at 0 -3.81) (layer F.Fab)\u000a      (effects (font (size 1 1) (thickness 0.15)))\u000a    )\u000a    (fp_arc (start 1.3 0.3) (end 4 0) (angle -56.33591695) (layer F.SilkS) (width 0.12))\u000a    (fp_arc (start -1.3 0.3) (end -2.539999 -2.099999) (angle -56.33592606) (layer F.SilkS) (width 0.12))\u000a    (fp_line (start 4 2.1) (end -4 2.1) (layer F.SilkS) (width 0.12))\u000a    (fp_line (start 4 0) (end 4 2.1) (layer F.SilkS) (width 0.12))\u000a    (fp_line (start -2.54 -2.1) (end 2.54 -2.1) (layer F.SilkS) (width 0.12))\u000a    (fp_line (start -4 2.1) (end -4 0) (layer F.SilkS) (width 0.12))\u000a    (pad 3 thru_hole oval (at 2.5 1) (size 1.8 3) (drill 0.9 (offset 0 -0.5)) (layers *.Cu *.Mask)\u000a      (net 7 /Sheet63C79D9A/out))\u000a    (pad 2 thru_hole oval (at 0 -1) (size 1.8 3) (drill 0.9 (offset 0 0.5)) (layers *.Cu *.Mask)\u000a      (net 9 /Sheet63D6B888/Sheet63C11DD6/in))\u000a    (pad 1 thru_hole oval (at -2.5 1) (size 1.8 3) (drill 0.9 (offset 0 -0.5)) (layers *.Cu *.Mask)\u000a      (net 1 GND))\u000a  )\u000a\u000a  (module processor2:2n7000_tight (layer F.Cu) (tedit 63BAECD3) (tstamp 63BCCADF)\u000a    (at 54.338 129.367512)\u000a    (path /63D6B889/63C11D94/63B943F5)\u000a    (fp_text reference Q107 (at 0 1.5) (layer F.SilkS)\u000a      (effects (font (size 0.5 0.5) (thickness 0.125)))\u000a    )\u000a    (fp_text value 2N7000 (at 0 -3.81) (layer F.Fab)\u000a      (effects (font (size 1 1) (thickness 0.15)))\u000a    )\u000a    (fp_arc (start 1.3 0.3) (end 4 0) (angle -56.33591695) (layer F.SilkS) (width 0.12))\u000a    (fp_arc (start -1.3 0.3) (end -2.539999 -2.099999) (angle -56.33592606) (layer F.SilkS) (width 0.12))\u000a    (fp_line (start 4 2.1) (end -4 2.1) (layer F.SilkS) (width 0.12))\u000a    (fp_line (start 4 0) (end 4 2.1) (layer F.SilkS) (width 0.12))\u000a    (fp_line (start -2.54 -2.1) (end 2.54 -2.1) (layer F.SilkS) (width 0.12))\u000a    (fp_line (start -4 2.1) (end -4 0) (layer F.SilkS) (width 0.12))\u000a    (pad 3 thru_hole oval (at 2.5 1) (size 1.8 3) (drill 0.9 (offset 0 -0.5)) (layers *.Cu *.Mask)\u000a      (net 10 "Net-(Q106-Pad1)"))\u000a    (pad 2 thru_hole oval (at 0 -1) (size 1.8 3) (drill 0.9 (offset 0 0.5)) (layers *.Cu *.Mask)\u000a      (net 11 /Sheet63D6B888/Sheet63C11D93/b))\u000a    (pad 1 thru_hole oval (at -2.5 1) (size 1.8 3) (drill 0.9 (offset 0 -0.5)) (layers *.Cu *.Mask)\u000a      (net 1 GND))\u000a  )\u000a\u000a  (module processor2:2n7000_tight (layer F.Cu) (tedit 63BAECD3) (tstamp 63BCCAD2)\u000a    (at 62.506 129.383512)\u000a    (path /63D6B889/63C11D94/63B94A25)\u000a    (fp_text reference Q106 (at 0 1.5) (layer F.SilkS)\u000a      (effects (font (size 0.5 0.5) (thickness 0.125)))\u000a    )\u000a    (fp_text value 2N7000 (at 0 -3.81) (layer F.Fab)\u000a      (effects (font (size 1 1) (thickness 0.15)))\u000a    )\u000a    (fp_arc (start 1.3 0.3) (end 4 0) (angle -56.33591695) (layer F.SilkS) (width 0.12))\u000a    (fp_arc (start -1.3 0.3) (end -2.539999 -2.099999) (angle -56.33592606) (layer F.SilkS) (width 0.12))\u000a    (fp_line (start 4 2.1) (end -4 2.1) (layer F.SilkS) (width 0.12))\u000a    (fp_line (start 4 0) (end 4 2.1) (layer F.SilkS) (width 0.12))\u000a    (fp_line (start -2.54 -2.1) (end 2.54 -2.1) (layer F.SilkS) (width 0.12))\u000a    (fp_line (start -4 2.1) (end -4 0) (layer F.SilkS) (width 0.12))\u000a    (pad 3 thru_hole oval (at 2.5 1) (size 1.8 3) (drill 0.9 (offset 0 -0.5)) (layers *.Cu *.Mask)\u000a      (net 9 /Sheet63D6B888/Sheet63C11DD6/in))\u000a    (pad 2 thru_hole oval (at 0 -1) (size 1.8 3) (drill 0.9 (offset 0 0.5)) (layers *.Cu *.Mask)\u000a      (net 5 /Sheet63D6B888/enable_write))\u000a    (pad 1 thru_hole oval (at -2.5 1) (size 1.8 3) (drill 0.9 (offset 0 -0.5)) (layers *.Cu *.Mask)\u000a      (net 10 "Net-(Q106-Pad1)"))\u000a  )\u000a\u000a)\u000a
p3
V050ab8f66aa298cc6ef9d398170f40a8
p4
(dp5
V63CACA63
p6
(lp7
Vsheet63CACA5E
p8
aV3hardware_selector.sch
p9
asV63CA8CA1
p10
(lp11
Vsheet63CA8C9C
p12
aV3hardware_selector.sch
p13
asV63CA16F5
p14
(lp15
Vsheet63CA16F0
p16
aV3hardware_selector.sch
p17
asV63C9D4B7
p18
(lp19
Vsheet63C9D4B2
p20
aV3hardware_selector.sch
p21
asV63C9949C
p22
(lp23
Vsheet63C99497
p24
aV3hardware_selector.sch
p25
asV63C79D9B
p26
(lp27
VSheet63C79D9A
p28
aV3hardware_selector.sch
p29
asV63BF0A71
p30
(lp31
Vsheet63BF0A69
p32
aVgated_full_adder.sch
p33
asV63C11DD7
p34
(lp35
VSheet63C11DD6
p36
aVnot.sch
p37
asV63C11D1C
p38
(lp39
Vsheet63C11D15
p40
aVfull_adder.sch
p41
asV63BD3BAE
p42
(lp43
Vsheet63BD3BA9
p44
aV2nand.sch
p45
asV63BD65B6
p46
(lp47
Vsheet63BD65B1
p48
aV2xor_innder.sch
p49
asV63BD4330
p50
(lp51
Vsheet63BD4328
p52
aV2nand.sch
p53
asV63BD4335
p54
(lp55
Vsheet63BD4329
p56
aV2nand.sch
p57
asV63BD433A
p58
(lp59
Vsheet63BD432A
p60
aV2nand.sch
p61
asV63BD433F
p62
(lp63
Vsheet63BD432B
p64
aV2nand.sch
p65
asV63BD3FAF
p66
(lp67
VSheet63BD3FAE
p68
aV2xor_innder.sch
p69
asV63C11D94
p70
(lp71
VSheet63C11D93
p72
aV2nand.sch
p73
asV63BF17C3
p74
(lp75
Vsheet63BF17B5
p76
aVgated_full_adder.sch
p77
asV63BF17BC
p78
(lp79
Vsheet63BF17B4
p80
aVgated_full_adder.sch
p81
asV63BF0A78
p82
(lp83
Vsheet63BF0A6A
p84
aVgated_full_adder.sch
p85
asV63D7C1C0
p86
(lp87
Vsheet63D7C1B8
p88
aVgated_full_adder.sch
p89
asV63D6B889
p90
(lp91
VSheet63D6B888
p92
aVgated_full_adder.sch
p93
as(lp94
V/Sheet63D6B888/sheet63C11D15/sheet63BD65B1/a
p95
aV/Sheet63D6B888/sheet63C11D15/Sheet63BD3FAE/sheet63BD432B/b
p96
aV/Sheet63D6B888/sheet63C11D15/Sheet63BD3FAE/sheet63BD432B/a
p97
aV/Sheet63D6B888/sheet63C11D15/sheet63BD3BA9/a
p98
aV/Sheet63D6B888/Sheet63C11D93/b
p99
aV/Sheet63D6B888/sheet63C11D15/sheet63BD65B1/sheet63BD432B/b
p100
aV/Sheet63D6B888/sheet63C11D15/sheet63BD65B1/sheet63BD432B/a
p101
aV/Sheet63D6B888/sheet63C11D15/sheet63BD3BA9/b
p102
aV/Sheet63D6B888/Sheet63C11DD6/in
p103
aVNet-(Q125-Pad1)
p104
aVNet-(Q123-Pad1)
p105
aVNet-(Q121-Pad1)
p106
aV/Sheet63D6B888/sheet63C11D15/Sheet63BD3FAE/sheet63BD4329/a
p107
aVNet-(Q119-Pad1)
p108
aVNet-(Q117-Pad1)
p109
aVNet-(Q115-Pad1)
p110
aVNet-(Q113-Pad1)
p111
aV/Sheet63D6B888/sheet63C11D15/sheet63BD65B1/sheet63BD4329/a
p112
aVNet-(Q111-Pad1)
p113
aVNet-(Q109-Pad1)
p114
aVNet-(Q106-Pad1)
p115
a(lp116
g92
a(lp117
g93
atp118
tp119
Rp120
.